target datalayout = "e-m:e-p270:32:32-p271:32:32-p272:64:64-i64:64-i128:128-f80:128-n8:16:32:64-S128"
target triple = "x86_64-pc-linux-gnu"

%struct.GENERAL_NAME_st = type { i32, %union.anon }
%union.anon = type { ptr }
%struct.v3_ext_ctx = type { i32, ptr, ptr, ptr, ptr, ptr, ptr }
%struct.X509_req_st = type { ptr, ptr, ptr, i32 }
%struct.X509_req_info_st = type { %struct.ASN1_ENCODING_st, ptr, ptr, ptr, ptr }
%struct.ASN1_ENCODING_st = type { ptr, i64, i32 }

@.str.25 = private unnamed_addr constant [126 x i8] c"generated/home/dtcxzyw/WorkSpace/Projects/compilers/llvm-opt-benchmark/bench/libquic/libquic/boringssl/crypto/x509v3/v3_alt.c\00", align 1

; Function Attrs: nounwind uwtable
define internal i32 @copy_email(ptr noundef %0, ptr noundef %1, i32 noundef %2) #0 {
  %4 = alloca i32, align 4
  %5 = alloca ptr, align 8
  %6 = alloca ptr, align 8
  %7 = alloca i32, align 4
  %8 = alloca ptr, align 8
  %9 = alloca ptr, align 8
  %10 = alloca ptr, align 8
  %11 = alloca ptr, align 8
  %12 = alloca i32, align 4
  %13 = alloca i32, align 4
  store ptr %0, ptr %5, align 8, !tbaa !21
  store ptr %1, ptr %6, align 8, !tbaa !11
  store i32 %2, ptr %7, align 4, !tbaa !39
  call void @llvm.lifetime.start.p0(i64 8, ptr %8) #6
  call void @llvm.lifetime.start.p0(i64 8, ptr %9) #6
  store ptr null, ptr %9, align 8, !tbaa !63
  call void @llvm.lifetime.start.p0(i64 8, ptr %10) #6
  call void @llvm.lifetime.start.p0(i64 8, ptr %11) #6
  store ptr null, ptr %11, align 8, !tbaa !17
  call void @llvm.lifetime.start.p0(i64 4, ptr %12) #6
  %14 = load ptr, ptr %5, align 8, !tbaa !21
  %15 = icmp ne ptr %14, null
  br i1 %15, label %16, label %22

16:                                               ; preds = %3
  %17 = load ptr, ptr %5, align 8, !tbaa !21
  %18 = getelementptr inbounds nuw %struct.v3_ext_ctx, ptr %17, i32 0, i32 0
  %19 = load i32, ptr %18, align 8, !tbaa !53
  %20 = icmp eq i32 %19, 1
  br i1 %20, label %21, label %22

21:                                               ; preds = %16
  store i32 1, ptr %4, align 4
  store i32 1, ptr %13, align 4
  br label %99

22:                                               ; preds = %16, %3
  %23 = load ptr, ptr %5, align 8, !tbaa !21
  %24 = icmp ne ptr %23, null
  br i1 %24, label %25, label %35

25:                                               ; preds = %22
  %26 = load ptr, ptr %5, align 8, !tbaa !21
  %27 = getelementptr inbounds nuw %struct.v3_ext_ctx, ptr %26, i32 0, i32 2
  %28 = load ptr, ptr %27, align 8, !tbaa !65
  %29 = icmp ne ptr %28, null
  br i1 %29, label %36, label %30

30:                                               ; preds = %25
  %31 = load ptr, ptr %5, align 8, !tbaa !21
  %32 = getelementptr inbounds nuw %struct.v3_ext_ctx, ptr %31, i32 0, i32 3
  %33 = load ptr, ptr %32, align 8, !tbaa !66
  %34 = icmp ne ptr %33, null
  br i1 %34, label %36, label %35

35:                                               ; preds = %30, %22
  call void @ERR_put_error(i32 noundef 20, i32 noundef 0, i32 noundef 145, ptr noundef @.str.25, i32 noundef 359)
  br label %96

36:                                               ; preds = %30, %25
  %37 = load ptr, ptr %5, align 8, !tbaa !21
  %38 = getelementptr inbounds nuw %struct.v3_ext_ctx, ptr %37, i32 0, i32 2
  %39 = load ptr, ptr %38, align 8, !tbaa !65
  %40 = icmp ne ptr %39, null
  br i1 %40, label %41, label %46

41:                                               ; preds = %36
  %42 = load ptr, ptr %5, align 8, !tbaa !21
  %43 = getelementptr inbounds nuw %struct.v3_ext_ctx, ptr %42, i32 0, i32 2
  %44 = load ptr, ptr %43, align 8, !tbaa !65
  %45 = call ptr @X509_get_subject_name(ptr noundef %44)
  store ptr %45, ptr %8, align 8, !tbaa !47
  br label %54

46:                                               ; preds = %36
  %47 = load ptr, ptr %5, align 8, !tbaa !21
  %48 = getelementptr inbounds nuw %struct.v3_ext_ctx, ptr %47, i32 0, i32 3
  %49 = load ptr, ptr %48, align 8, !tbaa !66
  %50 = getelementptr inbounds nuw %struct.X509_req_st, ptr %49, i32 0, i32 0
  %51 = load ptr, ptr %50, align 8, !tbaa !67
  %52 = getelementptr inbounds nuw %struct.X509_req_info_st, ptr %51, i32 0, i32 2
  %53 = load ptr, ptr %52, align 8, !tbaa !71
  store ptr %53, ptr %8, align 8, !tbaa !47
  br label %54

54:                                               ; preds = %46, %41
  store i32 -1, ptr %12, align 4, !tbaa !39
  br label %55

55:                                               ; preds = %94, %54
  %56 = load ptr, ptr %8, align 8, !tbaa !47
  %57 = load i32, ptr %12, align 4, !tbaa !39
  %58 = call i32 @X509_NAME_get_index_by_NID(ptr noundef %56, i32 noundef 48, i32 noundef %57)
  store i32 %58, ptr %12, align 4, !tbaa !39
  %59 = icmp sge i32 %58, 0
  br i1 %59, label %60, label %95

60:                                               ; preds = %55
  %61 = load ptr, ptr %8, align 8, !tbaa !47
  %62 = load i32, ptr %12, align 4, !tbaa !39
  %63 = call ptr @X509_NAME_get_entry(ptr noundef %61, i32 noundef %62)
  store ptr %63, ptr %10, align 8, !tbaa !76
  %64 = load ptr, ptr %10, align 8, !tbaa !76
  %65 = call ptr @X509_NAME_ENTRY_get_data(ptr noundef %64)
  %66 = call ptr @ASN1_STRING_dup(ptr noundef %65)
  store ptr %66, ptr %9, align 8, !tbaa !63
  %67 = load i32, ptr %7, align 4, !tbaa !39
  %68 = icmp ne i32 %67, 0
  br i1 %68, label %69, label %76

69:                                               ; preds = %60
  %70 = load ptr, ptr %8, align 8, !tbaa !47
  %71 = load i32, ptr %12, align 4, !tbaa !39
  %72 = call ptr @X509_NAME_delete_entry(ptr noundef %70, i32 noundef %71)
  %73 = load ptr, ptr %10, align 8, !tbaa !76
  call void @X509_NAME_ENTRY_free(ptr noundef %73)
  %74 = load i32, ptr %12, align 4, !tbaa !39
  %75 = add nsw i32 %74, -1
  store i32 %75, ptr %12, align 4, !tbaa !39
  br label %76

76:                                               ; preds = %69, %60
  %77 = load ptr, ptr %9, align 8, !tbaa !63
  %78 = icmp ne ptr %77, null
  br i1 %78, label %79, label %82

79:                                               ; preds = %76
  %80 = call ptr @GENERAL_NAME_new()
  store ptr %80, ptr %11, align 8, !tbaa !17
  %81 = icmp ne ptr %80, null
  br i1 %81, label %83, label %82

82:                                               ; preds = %79, %76
  call void @ERR_put_error(i32 noundef 20, i32 noundef 0, i32 noundef 65, ptr noundef @.str.25, i32 noundef 380)
  br label %96

83:                                               ; preds = %79
  %84 = load ptr, ptr %9, align 8, !tbaa !63
  %85 = load ptr, ptr %11, align 8, !tbaa !17
  %86 = getelementptr inbounds nuw %struct.GENERAL_NAME_st, ptr %85, i32 0, i32 1
  store ptr %84, ptr %86, align 8, !tbaa !34
  store ptr null, ptr %9, align 8, !tbaa !63
  %87 = load ptr, ptr %11, align 8, !tbaa !17
  %88 = getelementptr inbounds nuw %struct.GENERAL_NAME_st, ptr %87, i32 0, i32 0
  store i32 1, ptr %88, align 8, !tbaa !31
  %89 = load ptr, ptr %6, align 8, !tbaa !11
  %90 = load ptr, ptr %11, align 8, !tbaa !17
  %91 = call i64 @sk_push(ptr noundef %89, ptr noundef %90)
  %92 = icmp ne i64 %91, 0
  br i1 %92, label %94, label %93

93:                                               ; preds = %83
  call void @ERR_put_error(i32 noundef 20, i32 noundef 0, i32 noundef 65, ptr noundef @.str.25, i32 noundef 387)
  br label %96

94:                                               ; preds = %83
  store ptr null, ptr %11, align 8, !tbaa !17
  br label %55, !llvm.loop !78

95:                                               ; preds = %55
  store i32 1, ptr %4, align 4
  store i32 1, ptr %13, align 4
  br label %99

96:                                               ; preds = %93, %82, %35
  %97 = load ptr, ptr %11, align 8, !tbaa !17
  call void @GENERAL_NAME_free(ptr noundef %97)
  %98 = load ptr, ptr %9, align 8, !tbaa !63
  call void @ASN1_STRING_free(ptr noundef %98)
  store i32 0, ptr %4, align 4
  store i32 1, ptr %13, align 4
  br label %99

99:                                               ; preds = %96, %95, %21
  call void @llvm.lifetime.end.p0(i64 4, ptr %12) #6
  call void @llvm.lifetime.end.p0(i64 8, ptr %11) #6
  call void @llvm.lifetime.end.p0(i64 8, ptr %10) #6
  call void @llvm.lifetime.end.p0(i64 8, ptr %9) #6
  call void @llvm.lifetime.end.p0(i64 8, ptr %8) #6
  %100 = load i32, ptr %4, align 4
  ret i32 %100
}