; Function Attrs: nounwind uwtable
define internal fastcc range(i32 0, 2) i32 @copy_email(ptr noundef readonly captures(address_is_null) %0, ptr noundef nonnull %1, i32 noundef range(i32 0, 2) %2) unnamed_addr #0 {
  %.not = icmp eq ptr %0, null
  br i1 %.not, label %.critedge, label %4

4:                                                ; preds = %3
  %5 = load i32, ptr %0, align 8, !tbaa !17
  %6 = icmp eq i32 %5, 1
  br i1 %6, label %.loopexit, label %7

7:                                                ; preds = %4
  %8 = getelementptr inbounds nuw i8, ptr %0, i64 16
  %9 = load ptr, ptr %8, align 8, !tbaa !42
  %.not38 = icmp eq ptr %9, null
  br i1 %.not38, label %10, label %13

10:                                               ; preds = %7
  %11 = getelementptr inbounds nuw i8, ptr %0, i64 24
  %12 = load ptr, ptr %11, align 8, !tbaa !43
  %.not39 = icmp eq ptr %12, null
  br i1 %.not39, label %.critedge, label %15

.critedge:                                        ; preds = %3, %10
  tail call void @ERR_put_error(i32 noundef 20, i32 noundef 0, i32 noundef 145, ptr noundef nonnull @.str.25, i32 noundef 359) #7
  br label %44

13:                                               ; preds = %7
  %14 = tail call ptr @X509_get_subject_name(ptr noundef nonnull %9) #7
  br label %19

15:                                               ; preds = %10
  %16 = load ptr, ptr %12, align 8, !tbaa !44
  %17 = getelementptr inbounds nuw i8, ptr %16, i64 32
  %18 = load ptr, ptr %17, align 8, !tbaa !49
  br label %19

19:                                               ; preds = %15, %13
  %.030 = phi ptr [ %14, %13 ], [ %18, %15 ]
  %.not41 = icmp eq i32 %2, 0
  br i1 %.not41, label %.split.us, label %.split

.split.us:                                        ; preds = %19, %28
  %.0.us = phi i32 [ %20, %28 ], [ -1, %19 ]
  %20 = tail call i32 @X509_NAME_get_index_by_NID(ptr noundef %.030, i32 noundef 48, i32 noundef %.0.us) #7
  %21 = icmp sgt i32 %20, -1
  br i1 %21, label %22, label %.loopexit

22:                                               ; preds = %.split.us
  %23 = tail call ptr @X509_NAME_get_entry(ptr noundef %.030, i32 noundef %20) #7
  %24 = tail call ptr @X509_NAME_ENTRY_get_data(ptr noundef %23) #7
  %25 = tail call ptr @ASN1_STRING_dup(ptr noundef %24) #7
  %.not42.us = icmp eq ptr %25, null
  br i1 %.not42.us, label %.split48.us, label %26

26:                                               ; preds = %22
  %27 = tail call ptr @GENERAL_NAME_new() #7
  %.not43.us = icmp eq ptr %27, null
  br i1 %.not43.us, label %.split48.us, label %28

28:                                               ; preds = %26
  %29 = getelementptr inbounds nuw i8, ptr %27, i64 8
  store ptr %25, ptr %29, align 8, !tbaa !30
  store i32 1, ptr %27, align 8, !tbaa !28
  %30 = tail call i64 @sk_push(ptr noundef nonnull %1, ptr noundef nonnull %27) #7
  %.not44.us = icmp eq i64 %30, 0
  br i1 %.not44.us, label %.split50.us, label %.split.us, !llvm.loop !55

.split:                                           ; preds = %19, %41
  %.0 = phi i32 [ %38, %41 ], [ -1, %19 ]
  %31 = tail call i32 @X509_NAME_get_index_by_NID(ptr noundef %.030, i32 noundef 48, i32 noundef %.0) #7
  %32 = icmp sgt i32 %31, -1
  br i1 %32, label %33, label %.loopexit

33:                                               ; preds = %.split
  %34 = tail call ptr @X509_NAME_get_entry(ptr noundef %.030, i32 noundef %31) #7
  %35 = tail call ptr @X509_NAME_ENTRY_get_data(ptr noundef %34) #7
  %36 = tail call ptr @ASN1_STRING_dup(ptr noundef %35) #7
  %37 = tail call ptr @X509_NAME_delete_entry(ptr noundef %.030, i32 noundef %31) #7
  tail call void @X509_NAME_ENTRY_free(ptr noundef %34) #7
  %38 = add nsw i32 %31, -1
  %.not42 = icmp eq ptr %36, null
  br i1 %.not42, label %.split48.us, label %39

39:                                               ; preds = %33
  %40 = tail call ptr @GENERAL_NAME_new() #7
  %.not43 = icmp eq ptr %40, null
  br i1 %.not43, label %.split48.us, label %41

.split48.us:                                      ; preds = %33, %39, %22, %26
  %.us-phi = phi ptr [ null, %22 ], [ %25, %26 ], [ null, %33 ], [ %36, %39 ]
  tail call void @ERR_put_error(i32 noundef 20, i32 noundef 0, i32 noundef 65, ptr noundef nonnull @.str.25, i32 noundef 380) #7
  br label %44

41:                                               ; preds = %39
  %42 = getelementptr inbounds nuw i8, ptr %40, i64 8
  store ptr %36, ptr %42, align 8, !tbaa !30
  store i32 1, ptr %40, align 8, !tbaa !28
  %43 = tail call i64 @sk_push(ptr noundef nonnull %1, ptr noundef nonnull %40) #7
  %.not44 = icmp eq i64 %43, 0
  br i1 %.not44, label %.split50.us, label %.split, !llvm.loop !55

.split50.us:                                      ; preds = %41, %28
  %.us-phi51 = phi ptr [ %27, %28 ], [ %40, %41 ]
  tail call void @ERR_put_error(i32 noundef 20, i32 noundef 0, i32 noundef 65, ptr noundef nonnull @.str.25, i32 noundef 387) #7
  br label %44

44:                                               ; preds = %.split50.us, %.split48.us, %.critedge
  %.029 = phi ptr [ null, %.split50.us ], [ %.us-phi, %.split48.us ], [ null, %.critedge ]
  %.026 = phi ptr [ %.us-phi51, %.split50.us ], [ null, %.split48.us ], [ null, %.critedge ]
  tail call void @GENERAL_NAME_free(ptr noundef %.026) #7
  tail call void @ASN1_STRING_free(ptr noundef %.029) #7
  br label %.loopexit

.loopexit:                                        ; preds = %.split, %.split.us, %4, %44
  %.028 = phi i32 [ 0, %44 ], [ 1, %4 ], [ 1, %.split.us ], [ 1, %.split ]
  ret i32 %.028
}